target datalayout = "e-m:e-p270:32:32-p271:32:32-p272:64:64-i64:64-i128:128-f80:128-n8:16:32:64-S128"
target triple = "x86_64-pc-linux-gnu"

@.str.171 = private unnamed_addr constant [23 x i8] c"Smart Message Language\00", align 1
@.str.172 = private unnamed_addr constant [4 x i8] c"SML\00", align 1
@.str.173 = private unnamed_addr constant [4 x i8] c"sml\00", align 1
@proto_sml = internal global i32 0, align 4
@sml_handle = internal global ptr null, align 8
@.str.174 = private unnamed_addr constant [11 x i8] c"reassemble\00", align 1
@.str.175 = private unnamed_addr constant [18 x i8] c"Enable reassemble\00", align 1
@.str.176 = private unnamed_addr constant [41 x i8] c"Enable reassembling (default is enabled)\00", align 1
@sml_reassemble = internal global i8 1, align 1
@.str.177 = private unnamed_addr constant [4 x i8] c"crc\00", align 1
@.str.178 = private unnamed_addr constant [23 x i8] c"Enable crc calculation\00", align 1
@.str.179 = private unnamed_addr constant [33 x i8] c"Enable crc (default is disabled)\00", align 1
@sml_crc_enabled = internal global i8 0, align 1

; Function Attrs: null_pointer_is_valid sspstrong uwtable
define hidden void @proto_register_sml() #0 {
  %1 = alloca ptr, align 8
  %2 = alloca ptr, align 8
  call void @llvm.lifetime.start.p0(i64 8, ptr %1) #4
  call void @llvm.lifetime.start.p0(i64 8, ptr %2) #4
  %3 = call i32 @proto_register_protocol(ptr noundef @.str.171, ptr noundef @.str.172, ptr noundef @.str.173)
  store i32 %3, ptr @proto_sml, align 4
  %4 = load i32, ptr @proto_sml, align 4
  %5 = call ptr @register_dissector(ptr noundef @.str.173, ptr noundef @dissect_sml, i32 noundef %4)
  store ptr %5, ptr @sml_handle, align 8
  %6 = load i32, ptr @proto_sml, align 4
  %7 = call ptr @prefs_register_protocol(i32 noundef %6, ptr noundef null)
  store ptr %7, ptr %1, align 8
  %8 = load ptr, ptr %1, align 8
  call void @prefs_register_bool_preference(ptr noundef %8, ptr noundef @.str.174, ptr noundef @.str.175, ptr noundef @.str.176, ptr noundef @sml_reassemble)
  %9 = load ptr, ptr %1, align 8
  call void @prefs_register_bool_preference(ptr noundef %9, ptr noundef @.str.177, ptr noundef @.str.178, ptr noundef @.str.179, ptr noundef @sml_crc_enabled)
  %10 = load i32, ptr @proto_sml, align 4
  call void @proto_register_field_array(i32 noundef %10, ptr noundef @proto_register_sml.hf, i32 noundef 71)
  call void @proto_register_subtree_array(ptr noundef @proto_register_sml.ett, i32 noundef 103)
  %11 = load i32, ptr @proto_sml, align 4
  %12 = call ptr @expert_register_protocol(i32 noundef %11)
  store ptr %12, ptr %2, align 8
  %13 = load ptr, ptr %2, align 8
  call void @expert_register_field_array(ptr noundef %13, ptr noundef @proto_register_sml.ei, i32 noundef 15)
  call void @llvm.lifetime.end.p0(i64 8, ptr %2) #4
  call void @llvm.lifetime.end.p0(i64 8, ptr %1) #4
  ret void
}