; Function Attrs: null_pointer_is_valid sspstrong uwtable
define hidden void @proto_register_sml() local_unnamed_addr #0 {
  %1 = tail call i32 @proto_register_protocol(ptr noundef nonnull @.str.171, ptr noundef nonnull @.str.172, ptr noundef nonnull @.str.173)
  store i32 %1, ptr @proto_sml, align 4
  %2 = tail call ptr @register_dissector(ptr noundef nonnull @.str.173, ptr noundef nonnull @dissect_sml, i32 noundef %1)
  store ptr %2, ptr @sml_handle, align 8
  %3 = load i32, ptr @proto_sml, align 4
  %4 = tail call ptr @prefs_register_protocol(i32 noundef %3, ptr noundef null)
  tail call void @prefs_register_bool_preference(ptr noundef %4, ptr noundef nonnull @.str.174, ptr noundef nonnull @.str.175, ptr noundef nonnull @.str.176, ptr noundef nonnull @sml_reassemble)
  tail call void @prefs_register_bool_preference(ptr noundef %4, ptr noundef nonnull @.str.177, ptr noundef nonnull @.str.178, ptr noundef nonnull @.str.179, ptr noundef nonnull @sml_crc_enabled)
  %5 = load i32, ptr @proto_sml, align 4
  tail call void @proto_register_field_array(i32 noundef %5, ptr noundef nonnull @proto_register_sml.hf, i32 noundef 71)
  tail call void @proto_register_subtree_array(ptr noundef nonnull @proto_register_sml.ett, i32 noundef 103)
  %6 = load i32, ptr @proto_sml, align 4
  %7 = tail call ptr @expert_register_protocol(i32 noundef %6)
  tail call void @expert_register_field_array(ptr noundef %7, ptr noundef nonnull @proto_register_sml.ei, i32 noundef 15)
  ret void
}